Certificate:
    Data:
        Version: 3 (0x2)
        Serial Number: 1 (0x1)
    Signature Algorithm: sha256WithRSAEncryption
        Issuer: C=CN, ST=Beijing, L=Beijing, O=DACAS, OU=ServiceSecurity, CN=RADIUS
        Validity
            Not Before: Dec  2 05:39:37 2017 GMT
            Not After : Dec  2 05:39:37 2018 GMT
        Subject: C=CN, ST=Beijing, O=DACAS, OU=ServiceSecurity, CN=RADIUS
        Subject Public Key Info:
            Public Key Algorithm: rsaEncryption
                Public-Key: (2048 bit)
                Modulus:
                    00:ba:05:75:c0:bb:98:71:ee:be:87:83:b1:1c:e2:
                    50:ba:2f:56:c4:61:70:6d:32:04:55:43:6b:98:44:
                    2b:4d:7b:42:bc:22:a5:23:00:6a:22:3f:37:81:88:
                    f0:76:a4:a6:11:e1:4b:05:7f:1d:86:ed:5f:87:49:
                    2f:0f:c6:e2:81:d1:52:e6:af:ae:25:24:77:bb:15:
                    60:ec:d6:6a:24:2f:45:e3:75:70:35:14:82:fb:1d:
                    a7:18:f2:e9:32:58:b0:73:b2:04:f6:ee:32:ee:71:
                    8d:f5:f7:1d:46:01:51:e8:99:30:f1:f3:83:b0:cb:
                    f6:29:e6:e1:db:18:6a:de:0e:aa:e9:8c:2a:36:3a:
                    a2:ca:d2:49:7a:dc:b1:87:1c:f9:8b:c9:8e:95:28:
                    3b:07:55:bd:54:53:0b:6a:b7:e1:d5:36:3f:f8:3c:
                    e1:56:e9:ad:31:78:80:1d:27:5d:e3:56:7a:86:7e:
                    7d:ac:07:33:2c:9c:13:fe:26:09:63:95:11:78:b5:
                    8e:21:2e:15:a0:a8:c6:15:9c:97:c6:9e:44:e6:69:
                    47:20:c6:7e:72:06:20:07:8c:50:05:05:19:f6:f4:
                    83:48:4b:44:7b:63:c7:14:8a:73:8b:79:a8:60:e9:
                    1d:00:34:03:dd:a8:21:b0:15:8a:06:e7:b8:01:21:
                    21:87
                Exponent: 65537 (0x10001)
        X509v3 extensions:
            X509v3 Basic Constraints: 
                CA:FALSE
            Netscape Comment: 
                OpenSSL Generated Certificate
            X509v3 Subject Key Identifier: 
                A6:DD:65:48:9D:0A:C5:D4:7E:80:C0:C4:5D:36:9D:56:29:9F:80:CF
            X509v3 Authority Key Identifier: 
                keyid:98:97:5C:73:48:AD:66:1C:52:1B:EF:48:2A:93:70:69:64:21:B7:EF

    Signature Algorithm: sha256WithRSAEncryption
         b8:7c:02:49:18:09:bb:0a:04:2c:5d:20:89:d3:f1:c1:f6:8d:
         f3:96:9d:0f:7c:ec:75:7c:d5:ae:51:3f:56:ce:0f:ff:5f:1a:
         fc:fa:9a:1e:5d:00:28:d1:ae:16:64:36:9c:3a:d5:29:ba:35:
         9d:26:45:f7:da:f6:93:5b:5c:db:ed:eb:4e:a6:76:ee:aa:52:
         14:dc:7a:73:ab:85:24:71:41:af:14:c0:ce:f0:eb:24:d1:bd:
         04:cd:f6:2f:3f:be:f5:b9:6f:ea:57:43:c2:99:98:1b:81:51:
         80:4a:41:68:50:b3:79:e5:10:55:a9:9a:77:46:b1:9b:b9:39:
         85:bf:a1:13:ce:68:aa:ec:33:32:ec:6a:b6:1a:bc:e4:ab:54:
         1b:ff:30:89:df:8a:57:38:fa:7d:6b:b3:4d:05:dc:32:5b:bc:
         4e:ad:32:22:7e:a4:b6:ac:0e:ae:0f:c2:3b:38:69:f8:8f:c5:
         44:a0:23:fd:0a:61:41:15:cd:5d:de:9d:67:c0:b7:6b:74:ca:
         bc:97:3c:f6:97:4d:e0:1c:99:44:2e:82:92:23:1d:0d:a8:4d:
         ff:f6:ce:24:4d:1b:7f:d8:bb:bb:04:9a:c9:1d:da:41:8f:30:
         48:16:98:01:a4:5a:ee:8f:ff:2c:f3:53:c2:9d:e8:65:99:cd:
         2e:f1:06:c3
-----BEGIN CERTIFICATE-----
MIIDvDCCAqSgAwIBAgIBATANBgkqhkiG9w0BAQsFADBsMQswCQYDVQQGEwJDTjEQ
MA4GA1UECAwHQmVpamluZzEQMA4GA1UEBwwHQmVpamluZzEOMAwGA1UECgwFREFD
QVMxGDAWBgNVBAsMD1NlcnZpY2VTZWN1cml0eTEPMA0GA1UEAwwGUkFESVVTMB4X
DTE3MTIwMjA1MzkzN1oXDTE4MTIwMjA1MzkzN1owWjELMAkGA1UEBhMCQ04xEDAO
BgNVBAgMB0JlaWppbmcxDjAMBgNVBAoMBURBQ0FTMRgwFgYDVQQLDA9TZXJ2aWNl
U2VjdXJpdHkxDzANBgNVBAMMBlJBRElVUzCCASIwDQYJKoZIhvcNAQEBBQADggEP
ADCCAQoCggEBALoFdcC7mHHuvoeDsRziULovVsRhcG0yBFVDa5hEK017QrwipSMA
aiI/N4GI8HakphHhSwV/HYbtX4dJLw/G4oHRUuavriUkd7sVYOzWaiQvReN1cDUU
gvsdpxjy6TJYsHOyBPbuMu5xjfX3HUYBUeiZMPHzg7DL9inm4dsYat4OqumMKjY6
osrSSXrcsYcc+YvJjpUoOwdVvVRTC2q34dU2P/g84VbprTF4gB0nXeNWeoZ+fawH
MyycE/4mCWOVEXi1jiEuFaCoxhWcl8aeROZpRyDGfnIGIAeMUAUFGfb0g0hLRHtj
xxSKc4t5qGDpHQA0A92oIbAVigbnuAEhIYcCAwEAAaN7MHkwCQYDVR0TBAIwADAs
BglghkgBhvhCAQ0EHxYdT3BlblNTTCBHZW5lcmF0ZWQgQ2VydGlmaWNhdGUwHQYD
VR0OBBYEFKbdZUidCsXUfoDAxF02nVYpn4DPMB8GA1UdIwQYMBaAFJiXXHNIrWYc
UhvvSCqTcGlkIbfvMA0GCSqGSIb3DQEBCwUAA4IBAQC4fAJJGAm7CgQsXSCJ0/HB
9o3zlp0PfOx1fNWuUT9Wzg//Xxr8+poeXQAo0a4WZDacOtUpujWdJkX32vaTW1zb
7etOpnbuqlIU3Hpzq4UkcUGvFMDO8Osk0b0EzfYvP771uW/qV0PCmZgbgVGASkFo
ULN55RBVqZp3RrGbuTmFv6ETzmiq7DMy7Gq2Grzkq1Qb/zCJ34pXOPp9a7NNBdwy
W7xOrTIifqS2rA6uD8I7OGn4j8VEoCP9CmFBFc1d3p1nwLdrdMq8lzz2l03gHJlE
LoKSIx0NqE3/9s4kTRt/2Lu7BJrJHdpBjzBIFpgBpFruj/8s81PCnehlmc0u8QbD
-----END CERTIFICATE-----
